---
triple:          'arm64-apple-darwin'
binary-path:     build
relocations:
  - { offsetInCU: 0x26, offset: 0x26, size: 0x8, addend: 0x0, symName: __Z5sin_d4dual, symObjAddr: 0x0, symBinAddr: 0x100002778, symSize: 0x5C }
  - { offsetInCU: 0x33, offset: 0x33, size: 0x8, addend: 0x0, symName: __Z3powB8ue170006IfiENSt3__19enable_ifIXaasr3std13is_arithmeticIT_EE5valuesr3std13is_arithmeticIT0_EE5valueENS0_9__promoteIS2_S3_vEEE4type4typeES2_S3_, symObjAddr: 0x2A4, symBinAddr: 0x100002A1C, symSize: 0x3C }
  - { offsetInCU: 0x3A56, offset: 0x3A56, size: 0x8, addend: 0x0, symName: __Z5sin_d4dual, symObjAddr: 0x0, symBinAddr: 0x100002778, symSize: 0x5C }
  - { offsetInCU: 0x3B43, offset: 0x3B43, size: 0x8, addend: 0x0, symName: __ZN4dualC1Ev, symObjAddr: 0x5C, symBinAddr: 0x1000027D4, symSize: 0x2C }
  - { offsetInCU: 0x3B6B, offset: 0x3B6B, size: 0x8, addend: 0x0, symName: __Z3sinB8ue170006f, symObjAddr: 0x88, symBinAddr: 0x100002800, symSize: 0x24 }
  - { offsetInCU: 0x3B99, offset: 0x3B99, size: 0x8, addend: 0x0, symName: __Z3cosB8ue170006f, symObjAddr: 0xAC, symBinAddr: 0x100002824, symSize: 0x24 }
  - { offsetInCU: 0x3BC7, offset: 0x3BC7, size: 0x8, addend: 0x0, symName: __Z5cos_d4dual, symObjAddr: 0xD0, symBinAddr: 0x100002848, symSize: 0x60 }
  - { offsetInCU: 0x3C01, offset: 0x3C01, size: 0x8, addend: 0x0, symName: __Z5exp_d4dual, symObjAddr: 0x130, symBinAddr: 0x1000028A8, symSize: 0x5C }
  - { offsetInCU: 0x3C3B, offset: 0x3C3B, size: 0x8, addend: 0x0, symName: __Z3expB8ue170006f, symObjAddr: 0x18C, symBinAddr: 0x100002904, symSize: 0x24 }
  - { offsetInCU: 0x3C69, offset: 0x3C69, size: 0x8, addend: 0x0, symName: __Z5log_d4dual, symObjAddr: 0x1B0, symBinAddr: 0x100002928, symSize: 0x4C }
  - { offsetInCU: 0x3CA3, offset: 0x3CA3, size: 0x8, addend: 0x0, symName: __Z3logB8ue170006f, symObjAddr: 0x1FC, symBinAddr: 0x100002974, symSize: 0x24 }
  - { offsetInCU: 0x3CD1, offset: 0x3CD1, size: 0x8, addend: 0x0, symName: __Z5pow_d4duali, symObjAddr: 0x220, symBinAddr: 0x100002998, symSize: 0x84 }
  - { offsetInCU: 0x3D19, offset: 0x3D19, size: 0x8, addend: 0x0, symName: __ZN4dualC2Ev, symObjAddr: 0x2E0, symBinAddr: 0x100002A58, symSize: 0x24 }
  - { offsetInCU: 0x2E7D, offset: 0x6BC3, size: 0x8, addend: 0x0, symName: __ZNSt3__124__put_character_sequenceB8ue170006IcNS_11char_traitsIcEEEERNS_13basic_ostreamIT_T0_EES7_PKS4_m, symObjAddr: 0x4B0, symBinAddr: 0x100002F2C, symSize: 0x1EC }
  - { offsetInCU: 0x4814, offset: 0x855A, size: 0x8, addend: 0x0, symName: __ZNSt3__1lsB8ue170006INS_11char_traitsIcEEEERNS_13basic_ostreamIcT_EES6_PKc, symObjAddr: 0x43C, symBinAddr: 0x100002EB8, symSize: 0x48 }
  - { offsetInCU: 0x485A, offset: 0x85A0, size: 0x8, addend: 0x0, symName: __ZNSt3__116__pad_and_outputB8ue170006IcNS_11char_traitsIcEEEENS_19ostreambuf_iteratorIT_T0_EES6_PKS4_S8_S8_RNS_8ios_baseES4_, symObjAddr: 0x6EC, symBinAddr: 0x100003168, symSize: 0x240 }
  - { offsetInCU: 0x4929, offset: 0x866F, size: 0x8, addend: 0x0, symName: __ZNSt3__112__to_addressB8ue170006IcEEPT_S2_, symObjAddr: 0xC60, symBinAddr: 0x1000036DC, symSize: 0x14 }
  - { offsetInCU: 0x4991, offset: 0x86D7, size: 0x8, addend: 0x0, symName: __ZNSt3__19use_facetB8ue170006INS_5ctypeIcEEEERKT_RKNS_6localeE, symObjAddr: 0xF18, symBinAddr: 0x100003994, symSize: 0x2C }
  - { offsetInCU: 0x4E5E, offset: 0x8BA4, size: 0x8, addend: 0x0, symName: __ZNSt3__118__constexpr_strlenB8ue170006EPKc, symObjAddr: 0xFB0, symBinAddr: 0x100003A2C, symSize: 0x24 }
  - { offsetInCU: 0x70C6, offset: 0xAE0C, size: 0x8, addend: 0x0, symName: __ZN4funcC2E4dual, symObjAddr: 0x0, symBinAddr: 0x100002A7C, symSize: 0x1C }
  - { offsetInCU: 0x70FE, offset: 0xAE44, size: 0x8, addend: 0x0, symName: __ZN4funcC1E4dual, symObjAddr: 0x1C, symBinAddr: 0x100002A98, symSize: 0x3C }
  - { offsetInCU: 0x7136, offset: 0xAE7C, size: 0x8, addend: 0x0, symName: __Z1f4dualS_S_, symObjAddr: 0x58, symBinAddr: 0x100002AD4, symSize: 0xD0 }
  - { offsetInCU: 0x717E, offset: 0xAEC4, size: 0x8, addend: 0x0, symName: __ZN4dualmlES_, symObjAddr: 0x128, symBinAddr: 0x100002BA4, symSize: 0x5C }
  - { offsetInCU: 0x71B0, offset: 0xAEF6, size: 0x8, addend: 0x0, symName: __ZN4dualplES_, symObjAddr: 0x184, symBinAddr: 0x100002C00, symSize: 0x50 }
  - { offsetInCU: 0x71E2, offset: 0xAF28, size: 0x8, addend: 0x0, symName: _main, symObjAddr: 0x1D4, symBinAddr: 0x100002C50, symSize: 0x22C }
  - { offsetInCU: 0x7234, offset: 0xAF7A, size: 0x8, addend: 0x0, symName: __ZN4dualC1Eff, symObjAddr: 0x400, symBinAddr: 0x100002E7C, symSize: 0x3C }
  - { offsetInCU: 0x7278, offset: 0xAFBE, size: 0x8, addend: 0x0, symName: __ZN4dualC2Eff, symObjAddr: 0x484, symBinAddr: 0x100002F00, symSize: 0x2C }
  - { offsetInCU: 0x72BC, offset: 0xB002, size: 0x8, addend: 0x0, symName: __ZNSt3__111char_traitsIcE6lengthB8ue170006EPKc, symObjAddr: 0x69C, symBinAddr: 0x100003118, symSize: 0x34 }
  - { offsetInCU: 0x72FC, offset: 0xB042, size: 0x8, addend: 0x0, symName: __ZNKSt3__113basic_ostreamIcNS_11char_traitsIcEEE6sentrycvbB8ue170006Ev, symObjAddr: 0x6D0, symBinAddr: 0x10000314C, symSize: 0x1C }
  - { offsetInCU: 0x7320, offset: 0xB066, size: 0x8, addend: 0x0, symName: __ZNSt3__119ostreambuf_iteratorIcNS_11char_traitsIcEEEC1B8ue170006ERNS_13basic_ostreamIcS2_EE, symObjAddr: 0x92C, symBinAddr: 0x1000033A8, symSize: 0x34 }
  - { offsetInCU: 0x7356, offset: 0xB09C, size: 0x8, addend: 0x0, symName: __ZNKSt3__18ios_base5flagsB8ue170006Ev, symObjAddr: 0x960, symBinAddr: 0x1000033DC, symSize: 0x18 }
  - { offsetInCU: 0x737D, offset: 0xB0C3, size: 0x8, addend: 0x0, symName: __ZNKSt3__19basic_iosIcNS_11char_traitsIcEEE4fillB8ue170006Ev, symObjAddr: 0x978, symBinAddr: 0x1000033F4, symSize: 0x64 }
  - { offsetInCU: 0x73A4, offset: 0xB0EA, size: 0x8, addend: 0x0, symName: __ZNKSt3__119ostreambuf_iteratorIcNS_11char_traitsIcEEE6failedB8ue170006Ev, symObjAddr: 0x9DC, symBinAddr: 0x100003458, symSize: 0x24 }
  - { offsetInCU: 0x73C8, offset: 0xB10E, size: 0x8, addend: 0x0, symName: __ZNSt3__19basic_iosIcNS_11char_traitsIcEEE8setstateB8ue170006Ej, symObjAddr: 0xA00, symBinAddr: 0x10000347C, symSize: 0x2C }
  - { offsetInCU: 0x73FB, offset: 0xB141, size: 0x8, addend: 0x0, symName: __ZNKSt3__18ios_base5widthB8ue170006Ev, symObjAddr: 0xA38, symBinAddr: 0x1000034B4, symSize: 0x18 }
  - { offsetInCU: 0x7422, offset: 0xB168, size: 0x8, addend: 0x0, symName: __ZNSt3__115basic_streambufIcNS_11char_traitsIcEEE5sputnB8ue170006EPKcl, symObjAddr: 0xA50, symBinAddr: 0x1000034CC, symSize: 0x3C }
  - { offsetInCU: 0x7462, offset: 0xB1A8, size: 0x8, addend: 0x0, symName: __ZNSt3__112basic_stringIcNS_11char_traitsIcEENS_9allocatorIcEEEC1B8ue170006Emc, symObjAddr: 0xA8C, symBinAddr: 0x100003508, symSize: 0x3C }
  - { offsetInCU: 0x74A8, offset: 0xB1EE, size: 0x8, addend: 0x0, symName: __ZNSt3__112basic_stringIcNS_11char_traitsIcEENS_9allocatorIcEEE4dataB8ue170006Ev, symObjAddr: 0xAC8, symBinAddr: 0x100003544, symSize: 0x28 }
  - { offsetInCU: 0x74CC, offset: 0xB212, size: 0x8, addend: 0x0, symName: __ZNSt3__18ios_base5widthB8ue170006El, symObjAddr: 0xAF0, symBinAddr: 0x10000356C, symSize: 0x2C }
  - { offsetInCU: 0x7511, offset: 0xB257, size: 0x8, addend: 0x0, symName: __ZNSt3__112basic_stringIcNS_11char_traitsIcEENS_9allocatorIcEEEC2B8ue170006Emc, symObjAddr: 0xB1C, symBinAddr: 0x100003598, symSize: 0x4C }
  - { offsetInCU: 0x755C, offset: 0xB2A2, size: 0x8, addend: 0x0, symName: __ZNSt3__117__compressed_pairINS_12basic_stringIcNS_11char_traitsIcEENS_9allocatorIcEEE5__repES5_EC1B8ue170006INS_18__default_init_tagESA_EEOT_OT0_, symObjAddr: 0xB68, symBinAddr: 0x1000035E4, symSize: 0x3C }
  - { offsetInCU: 0x75B2, offset: 0xB2F8, size: 0x8, addend: 0x0, symName: __ZNSt3__117__compressed_pairINS_12basic_stringIcNS_11char_traitsIcEENS_9allocatorIcEEE5__repES5_EC2B8ue170006INS_18__default_init_tagESA_EEOT_OT0_, symObjAddr: 0xBA4, symBinAddr: 0x100003620, symSize: 0x3C }
  - { offsetInCU: 0x7608, offset: 0xB34E, size: 0x8, addend: 0x0, symName: __ZNSt3__122__compressed_pair_elemINS_12basic_stringIcNS_11char_traitsIcEENS_9allocatorIcEEE5__repELi0ELb0EEC2B8ue170006ENS_18__default_init_tagE, symObjAddr: 0xBE0, symBinAddr: 0x10000365C, symSize: 0x14 }
  - { offsetInCU: 0x763B, offset: 0xB381, size: 0x8, addend: 0x0, symName: __ZNSt3__122__compressed_pair_elemINS_9allocatorIcEELi1ELb1EEC2B8ue170006ENS_18__default_init_tagE, symObjAddr: 0xBF4, symBinAddr: 0x100003670, symSize: 0x2C }
  - { offsetInCU: 0x766E, offset: 0xB3B4, size: 0x8, addend: 0x0, symName: __ZNSt3__19allocatorIcEC2B8ue170006Ev, symObjAddr: 0xC20, symBinAddr: 0x10000369C, symSize: 0x2C }
  - { offsetInCU: 0x7696, offset: 0xB3DC, size: 0x8, addend: 0x0, symName: __ZNSt3__116__non_trivial_ifILb1ENS_9allocatorIcEEEC2B8ue170006Ev, symObjAddr: 0xC4C, symBinAddr: 0x1000036C8, symSize: 0x14 }
  - { offsetInCU: 0x76BE, offset: 0xB404, size: 0x8, addend: 0x0, symName: __ZNSt3__112basic_stringIcNS_11char_traitsIcEENS_9allocatorIcEEE13__get_pointerB8ue170006Ev, symObjAddr: 0xC74, symBinAddr: 0x1000036F0, symSize: 0x54 }
  - { offsetInCU: 0x76E2, offset: 0xB428, size: 0x8, addend: 0x0, symName: __ZNKSt3__112basic_stringIcNS_11char_traitsIcEENS_9allocatorIcEEE9__is_longB8ue170006Ev, symObjAddr: 0xCC8, symBinAddr: 0x100003744, symSize: 0x38 }
  - { offsetInCU: 0x7706, offset: 0xB44C, size: 0x8, addend: 0x0, symName: __ZNSt3__112basic_stringIcNS_11char_traitsIcEENS_9allocatorIcEEE18__get_long_pointerB8ue170006Ev, symObjAddr: 0xD00, symBinAddr: 0x10000377C, symSize: 0x28 }
  - { offsetInCU: 0x772A, offset: 0xB470, size: 0x8, addend: 0x0, symName: __ZNSt3__112basic_stringIcNS_11char_traitsIcEENS_9allocatorIcEEE19__get_short_pointerB8ue170006Ev, symObjAddr: 0xD28, symBinAddr: 0x1000037A4, symSize: 0x28 }
  - { offsetInCU: 0x774E, offset: 0xB494, size: 0x8, addend: 0x0, symName: __ZNKSt3__117__compressed_pairINS_12basic_stringIcNS_11char_traitsIcEENS_9allocatorIcEEE5__repES5_E5firstB8ue170006Ev, symObjAddr: 0xD50, symBinAddr: 0x1000037CC, symSize: 0x24 }
  - { offsetInCU: 0x7772, offset: 0xB4B8, size: 0x8, addend: 0x0, symName: __ZNKSt3__122__compressed_pair_elemINS_12basic_stringIcNS_11char_traitsIcEENS_9allocatorIcEEE5__repELi0ELb0EE5__getB8ue170006Ev, symObjAddr: 0xD74, symBinAddr: 0x1000037F0, symSize: 0x14 }
  - { offsetInCU: 0x7796, offset: 0xB4DC, size: 0x8, addend: 0x0, symName: __ZNSt3__117__compressed_pairINS_12basic_stringIcNS_11char_traitsIcEENS_9allocatorIcEEE5__repES5_E5firstB8ue170006Ev, symObjAddr: 0xD88, symBinAddr: 0x100003804, symSize: 0x24 }
  - { offsetInCU: 0x77BA, offset: 0xB500, size: 0x8, addend: 0x0, symName: __ZNSt3__122__compressed_pair_elemINS_12basic_stringIcNS_11char_traitsIcEENS_9allocatorIcEEE5__repELi0ELb0EE5__getB8ue170006Ev, symObjAddr: 0xDAC, symBinAddr: 0x100003828, symSize: 0x14 }
  - { offsetInCU: 0x77DF, offset: 0xB525, size: 0x8, addend: 0x0, symName: __ZNSt3__114pointer_traitsIPcE10pointer_toB8ue170006ERc, symObjAddr: 0xDC0, symBinAddr: 0x10000383C, symSize: 0x14 }
  - { offsetInCU: 0x7801, offset: 0xB547, size: 0x8, addend: 0x0, symName: __ZNSt3__119ostreambuf_iteratorIcNS_11char_traitsIcEEEC2B8ue170006ERNS_13basic_ostreamIcS2_EE, symObjAddr: 0xDD4, symBinAddr: 0x100003850, symSize: 0x54 }
  - { offsetInCU: 0x7837, offset: 0xB57D, size: 0x8, addend: 0x0, symName: __ZNKSt3__19basic_iosIcNS_11char_traitsIcEEE5rdbufB8ue170006Ev, symObjAddr: 0xE28, symBinAddr: 0x1000038A4, symSize: 0x24 }
  - { offsetInCU: 0x785E, offset: 0xB5A4, size: 0x8, addend: 0x0, symName: __ZNKSt3__18ios_base5rdbufB8ue170006Ev, symObjAddr: 0xE4C, symBinAddr: 0x1000038C8, symSize: 0x18 }
  - { offsetInCU: 0x7883, offset: 0xB5C9, size: 0x8, addend: 0x0, symName: __ZNSt3__111char_traitsIcE11eq_int_typeB8ue170006Eii, symObjAddr: 0xE64, symBinAddr: 0x1000038E0, symSize: 0x28 }
  - { offsetInCU: 0x78B6, offset: 0xB5FC, size: 0x8, addend: 0x0, symName: __ZNSt3__111char_traitsIcE3eofB8ue170006Ev, symObjAddr: 0xE8C, symBinAddr: 0x100003908, symSize: 0x8 }
  - { offsetInCU: 0x78C9, offset: 0xB60F, size: 0x8, addend: 0x0, symName: __ZNKSt3__19basic_iosIcNS_11char_traitsIcEEE5widenB8ue170006Ec, symObjAddr: 0xE94, symBinAddr: 0x100003910, symSize: 0x84 }
  - { offsetInCU: 0x7936, offset: 0xB67C, size: 0x8, addend: 0x0, symName: __ZNKSt3__15ctypeIcE5widenB8ue170006Ec, symObjAddr: 0xF44, symBinAddr: 0x1000039C0, symSize: 0x38 }
  - { offsetInCU: 0x7969, offset: 0xB6AF, size: 0x8, addend: 0x0, symName: __ZNSt3__18ios_base8setstateB8ue170006Ej, symObjAddr: 0xF7C, symBinAddr: 0x1000039F8, symSize: 0x34 }
  - { offsetInCU: 0x26, offset: 0xB760, size: 0x8, addend: 0x0, symName: __ZN7sigmoid7forwardEN5Eigen6TensorI4dualLi2ELi0ElEE, symObjAddr: 0x0, symBinAddr: 0x100003A50, symSize: 0x3C }
  - { offsetInCU: 0x24A, offset: 0xB984, size: 0x8, addend: 0x0, symName: __ZN5Eigen8internal9array_getILm0ElLm2EEERKT0_RKNSt3__15arrayIS2_XT1_EEE, symObjAddr: 0x1DC, symBinAddr: 0x100003C2C, symSize: 0x14 }
  - { offsetInCU: 0x2E1, offset: 0xBA1B, size: 0x8, addend: 0x0, symName: __ZN5Eigen8internal9array_getILm1ElLm2EEERKT0_RKNSt3__15arrayIS2_XT1_EEE, symObjAddr: 0x21C, symBinAddr: 0x100003C6C, symSize: 0x18 }
  - { offsetInCU: 0x44CF, offset: 0xFC09, size: 0x8, addend: 0x0, symName: __ZN7sigmoid7forwardEN5Eigen6TensorI4dualLi2ELi0ElEE, symObjAddr: 0x0, symBinAddr: 0x100003A50, symSize: 0x3C }
  - { offsetInCU: 0x4505, offset: 0xFC3F, size: 0x8, addend: 0x0, symName: __ZN5Eigen6TensorI4dualLi2ELi0ElEclIJEEERS1_llDpT_, symObjAddr: 0x3C, symBinAddr: 0x100003A8C, symSize: 0x40 }
  - { offsetInCU: 0x454B, offset: 0xFC85, size: 0x8, addend: 0x0, symName: __ZN5Eigen6TensorI4dualLi2ELi0ElEclERKNSt3__15arrayIlLm2EEE, symObjAddr: 0x7C, symBinAddr: 0x100003ACC, symSize: 0x2C }
  - { offsetInCU: 0x457D, offset: 0xFCB7, size: 0x8, addend: 0x0, symName: __ZN5Eigen6TensorI4dualLi2ELi0ElE8coeffRefERKNSt3__15arrayIlLm2EEE, symObjAddr: 0xA8, symBinAddr: 0x100003AF8, symSize: 0x4C }
  - { offsetInCU: 0x45AF, offset: 0xFCE9, size: 0x8, addend: 0x0, symName: __ZN5Eigen13TensorStorageI4dualNS_6DSizesIlLi2EEELi0EE4dataEv, symObjAddr: 0xF4, symBinAddr: 0x100003B44, symSize: 0x18 }
  - { offsetInCU: 0x45D3, offset: 0xFD0D, size: 0x8, addend: 0x0, symName: __ZNK5Eigen6TensorI4dualLi2ELi0ElE15linearizedIndexERKNSt3__15arrayIlLm2EEE, symObjAddr: 0x10C, symBinAddr: 0x100003B5C, symSize: 0x30 }
  - { offsetInCU: 0x4606, offset: 0xFD40, size: 0x8, addend: 0x0, symName: __ZNK5Eigen13TensorStorageI4dualNS_6DSizesIlLi2EEELi0EE10dimensionsEv, symObjAddr: 0x13C, symBinAddr: 0x100003B8C, symSize: 0x18 }
  - { offsetInCU: 0x462A, offset: 0xFD64, size: 0x8, addend: 0x0, symName: __ZNK5Eigen6DSizesIlLi2EE15IndexOfColMajorERKNSt3__15arrayIlLm2EEE, symObjAddr: 0x154, symBinAddr: 0x100003BA4, symSize: 0x2C }
  - { offsetInCU: 0x4666, offset: 0xFDA0, size: 0x8, addend: 0x0, symName: __ZN5Eigen8internal33tensor_index_linearization_helperIlLl2ELl1ELb0EE3runERKNSt3__15arrayIlLm2EEES7_, symObjAddr: 0x180, symBinAddr: 0x100003BD0, symSize: 0x5C }
  - { offsetInCU: 0x4696, offset: 0xFDD0, size: 0x8, addend: 0x0, symName: __ZN5Eigen8internal33tensor_index_linearization_helperIlLl2ELl0ELb0EE3runERKNSt3__15arrayIlLm2EEES7_, symObjAddr: 0x1F0, symBinAddr: 0x100003C40, symSize: 0x2C }
...
